target datalayout = "e-m:e-p270:32:32-p271:32:32-p272:64:64-i64:64-i128:128-f80:128-n8:16:32:64-S128"
target triple = "x86_64-pc-linux-gnu"

%struct.Rwr_Man_t_ = type { i32, ptr, ptr, ptr, ptr, ptr, ptr, ptr, ptr, ptr, ptr, ptr, i32, i32, i32, i32, i32, ptr, ptr, ptr, ptr, ptr, i32, i32, i32, i32, i32, [222 x i32], i32, i32, i32, i64, i64, i64, i64, i64, i64, i64 }
%struct.Vec_Ptr_t_ = type { i32, i32, ptr }
%struct.Rwr_Node_t_ = type <{ i32, i32, i16, i16, i16, i32, [6 x i8], ptr, ptr, ptr }>
%struct.Vec_Vec_t_ = type { i32, i32, ptr }

@Gains = internal global [222 x i32] zeroinitializer, align 16
@.str.8 = private unnamed_addr constant [44 x i8] c"CLASS %3d: Subgr = %3d. Total gain = %6d.  \00", align 1
@stdout = external global ptr, align 8
@.str.9 = private unnamed_addr constant [3 x i8] c"  \00", align 1
@.str.10 = private unnamed_addr constant [31 x i8] c"    %2d: S=%5d. A=%5d. G=%6d. \00", align 1

; Function Attrs: inlinehint nounwind uwtable
define internal ptr @Vec_PtrEntry(ptr noundef %0, i32 noundef %1) #3 {
  %3 = alloca ptr, align 8
  %4 = alloca i32, align 4
  store ptr %0, ptr %3, align 8, !tbaa !66
  store i32 %1, ptr %4, align 4, !tbaa !12
  %5 = load ptr, ptr %3, align 8, !tbaa !66
  %6 = getelementptr inbounds nuw %struct.Vec_Ptr_t_, ptr %5, i32 0, i32 2
  %7 = load ptr, ptr %6, align 8, !tbaa !68
  %8 = load i32, ptr %4, align 4, !tbaa !12
  %9 = sext i32 %8 to i64
  %10 = getelementptr inbounds ptr, ptr %7, i64 %9
  %11 = load ptr, ptr %10, align 8, !tbaa !67
  ret ptr %11
}

; Function Attrs: inlinehint nounwind uwtable
define internal i32 @Vec_PtrSize(ptr noundef %0) #3 {
  %2 = alloca ptr, align 8
  store ptr %0, ptr %2, align 8, !tbaa !66
  %3 = load ptr, ptr %2, align 8, !tbaa !66
  %4 = getelementptr inbounds nuw %struct.Vec_Ptr_t_, ptr %3, i32 0, i32 1
  %5 = load i32, ptr %4, align 4, !tbaa !64
  ret i32 %5
}

; Function Attrs: inlinehint nounwind uwtable
define internal ptr @Vec_VecEntry(ptr noundef %0, i32 noundef %1) #3 {
  %3 = alloca ptr, align 8
  %4 = alloca i32, align 4
  store ptr %0, ptr %3, align 8, !tbaa !113
  store i32 %1, ptr %4, align 4, !tbaa !12
  %5 = load ptr, ptr %3, align 8, !tbaa !113
  %6 = getelementptr inbounds nuw %struct.Vec_Vec_t_, ptr %5, i32 0, i32 2
  %7 = load ptr, ptr %6, align 8, !tbaa !114
  %8 = load i32, ptr %4, align 4, !tbaa !12
  %9 = sext i32 %8 to i64
  %10 = getelementptr inbounds ptr, ptr %7, i64 %9
  %11 = load ptr, ptr %10, align 8, !tbaa !67
  ret ptr %11
}

; Function Attrs: nounwind uwtable
define void @Rwr_ScoresReport(ptr noundef %0) #0 {
  %2 = alloca ptr, align 8
  %3 = alloca [222 x i32], align 16
  %4 = alloca ptr, align 8
  %5 = alloca ptr, align 8
  %6 = alloca i32, align 4
  %7 = alloca i32, align 4
  %8 = alloca i32, align 4
  %9 = alloca i32, align 4
  store ptr %0, ptr %2, align 8, !tbaa !3
  call void @llvm.lifetime.start.p0(i64 888, ptr %3) #7
  call void @llvm.lifetime.start.p0(i64 8, ptr %4) #7
  call void @llvm.lifetime.start.p0(i64 8, ptr %5) #7
  call void @llvm.lifetime.start.p0(i64 4, ptr %6) #7
  call void @llvm.lifetime.start.p0(i64 4, ptr %7) #7
  call void @llvm.lifetime.start.p0(i64 4, ptr %8) #7
  call void @llvm.lifetime.start.p0(i64 4, ptr %9) #7
  store i32 0, ptr %6, align 4, !tbaa !12
  br label %10

10:                                               ; preds = %56, %1
  %11 = load i32, ptr %6, align 4, !tbaa !12
  %12 = load ptr, ptr %2, align 8, !tbaa !3
  %13 = getelementptr inbounds nuw %struct.Rwr_Man_t_, ptr %12, i32 0, i32 10
  %14 = load ptr, ptr %13, align 8, !tbaa !85
  %15 = getelementptr inbounds nuw %struct.Vec_Vec_t_, ptr %14, i32 0, i32 1
  %16 = load i32, ptr %15, align 4, !tbaa !109
  %17 = icmp slt i32 %11, %16
  br i1 %17, label %18, label %59

18:                                               ; preds = %10
  %19 = load i32, ptr %6, align 4, !tbaa !12
  %20 = load i32, ptr %6, align 4, !tbaa !12
  %21 = sext i32 %20 to i64
  %22 = getelementptr inbounds [222 x i32], ptr %3, i64 0, i64 %21
  store i32 %19, ptr %22, align 4, !tbaa !12
  %23 = load i32, ptr %6, align 4, !tbaa !12
  %24 = sext i32 %23 to i64
  %25 = getelementptr inbounds [222 x i32], ptr @Gains, i64 0, i64 %24
  store i32 0, ptr %25, align 4, !tbaa !12
  %26 = load ptr, ptr %2, align 8, !tbaa !3
  %27 = getelementptr inbounds nuw %struct.Rwr_Man_t_, ptr %26, i32 0, i32 10
  %28 = load ptr, ptr %27, align 8, !tbaa !85
  %29 = load i32, ptr %6, align 4, !tbaa !12
  %30 = call ptr @Vec_VecEntry(ptr noundef %28, i32 noundef %29)
  store ptr %30, ptr %4, align 8, !tbaa !66
  store i32 0, ptr %8, align 4, !tbaa !12
  br label %31

31:                                               ; preds = %52, %18
  %32 = load i32, ptr %8, align 4, !tbaa !12
  %33 = load ptr, ptr %4, align 8, !tbaa !66
  %34 = call i32 @Vec_PtrSize(ptr noundef %33)
  %35 = icmp slt i32 %32, %34
  br i1 %35, label %36, label %40

36:                                               ; preds = %31
  %37 = load ptr, ptr %4, align 8, !tbaa !66
  %38 = load i32, ptr %8, align 4, !tbaa !12
  %39 = call ptr @Vec_PtrEntry(ptr noundef %37, i32 noundef %38)
  store ptr %39, ptr %5, align 8, !tbaa !88
  br label %40

40:                                               ; preds = %36, %31
  %41 = phi i1 [ false, %31 ], [ true, %36 ]
  br i1 %41, label %42, label %55

42:                                               ; preds = %40
  %43 = load ptr, ptr %5, align 8, !tbaa !88
  %44 = getelementptr inbounds nuw %struct.Rwr_Node_t_, ptr %43, i32 0, i32 3
  %45 = load i16, ptr %44, align 2, !tbaa !95
  %46 = sext i16 %45 to i32
  %47 = load i32, ptr %6, align 4, !tbaa !12
  %48 = sext i32 %47 to i64
  %49 = getelementptr inbounds [222 x i32], ptr @Gains, i64 0, i64 %48
  %50 = load i32, ptr %49, align 4, !tbaa !12
  %51 = add nsw i32 %50, %46
  store i32 %51, ptr %49, align 4, !tbaa !12
  br label %52

52:                                               ; preds = %42
  %53 = load i32, ptr %8, align 4, !tbaa !12
  %54 = add nsw i32 %53, 1
  store i32 %54, ptr %8, align 4, !tbaa !12
  br label %31, !llvm.loop !115

55:                                               ; preds = %40
  br label %56

56:                                               ; preds = %55
  %57 = load i32, ptr %6, align 4, !tbaa !12
  %58 = add nsw i32 %57, 1
  store i32 %58, ptr %6, align 4, !tbaa !12
  br label %10, !llvm.loop !116

59:                                               ; preds = %10
  %60 = getelementptr inbounds [222 x i32], ptr %3, i64 0, i64 0
  call void @qsort(ptr noundef %60, i64 noundef 222, i64 noundef 4, ptr noundef @Rwr_ScoresCompare)
  store i32 0, ptr %6, align 4, !tbaa !12
  br label %61

61:                                               ; preds = %163, %59
  %62 = load i32, ptr %6, align 4, !tbaa !12
  %63 = load ptr, ptr %2, align 8, !tbaa !3
  %64 = getelementptr inbounds nuw %struct.Rwr_Man_t_, ptr %63, i32 0, i32 10
  %65 = load ptr, ptr %64, align 8, !tbaa !85
  %66 = getelementptr inbounds nuw %struct.Vec_Vec_t_, ptr %65, i32 0, i32 1
  %67 = load i32, ptr %66, align 4, !tbaa !109
  %68 = icmp slt i32 %62, %67
  br i1 %68, label %69, label %166

69:                                               ; preds = %61
  %70 = load i32, ptr %6, align 4, !tbaa !12
  %71 = sext i32 %70 to i64
  %72 = getelementptr inbounds [222 x i32], ptr %3, i64 0, i64 %71
  %73 = load i32, ptr %72, align 4, !tbaa !12
  store i32 %73, ptr %7, align 4, !tbaa !12
  %74 = load i32, ptr %7, align 4, !tbaa !12
  %75 = sext i32 %74 to i64
  %76 = getelementptr inbounds [222 x i32], ptr @Gains, i64 0, i64 %75
  %77 = load i32, ptr %76, align 4, !tbaa !12
  %78 = icmp eq i32 %77, 0
  br i1 %78, label %79, label %80

79:                                               ; preds = %69
  br label %166

80:                                               ; preds = %69
  %81 = load ptr, ptr %2, align 8, !tbaa !3
  %82 = getelementptr inbounds nuw %struct.Rwr_Man_t_, ptr %81, i32 0, i32 10
  %83 = load ptr, ptr %82, align 8, !tbaa !85
  %84 = load i32, ptr %7, align 4, !tbaa !12
  %85 = call ptr @Vec_VecEntry(ptr noundef %83, i32 noundef %84)
  store ptr %85, ptr %4, align 8, !tbaa !66
  %86 = load i32, ptr %7, align 4, !tbaa !12
  %87 = load ptr, ptr %4, align 8, !tbaa !66
  %88 = call i32 @Vec_PtrSize(ptr noundef %87)
  %89 = load i32, ptr %7, align 4, !tbaa !12
  %90 = sext i32 %89 to i64
  %91 = getelementptr inbounds [222 x i32], ptr @Gains, i64 0, i64 %90
  %92 = load i32, ptr %91, align 4, !tbaa !12
  %93 = call i32 (ptr, ...) @printf(ptr noundef @.str.8, i32 noundef %86, i32 noundef %88, i32 noundef %92)
  %94 = load ptr, ptr %2, align 8, !tbaa !3
  %95 = getelementptr inbounds nuw %struct.Rwr_Man_t_, ptr %94, i32 0, i32 5
  %96 = load ptr, ptr %95, align 8, !tbaa !117
  %97 = load i32, ptr %7, align 4, !tbaa !12
  %98 = sext i32 %97 to i64
  %99 = getelementptr inbounds i16, ptr %96, i64 %98
  %100 = load i16, ptr %99, align 2, !tbaa !118
  %101 = zext i16 %100 to i32
  store i32 %101, ptr %9, align 4, !tbaa !12
  %102 = load ptr, ptr @stdout, align 8, !tbaa !119
  call void @Extra_PrintBinary(ptr noundef %102, ptr noundef %9, i32 noundef 16)
  %103 = call i32 (ptr, ...) @printf(ptr noundef @.str.9)
  %104 = load ptr, ptr %2, align 8, !tbaa !3
  %105 = getelementptr inbounds nuw %struct.Rwr_Man_t_, ptr %104, i32 0, i32 5
  %106 = load ptr, ptr %105, align 8, !tbaa !117
  %107 = load i32, ptr %7, align 4, !tbaa !12
  %108 = sext i32 %107 to i64
  %109 = getelementptr inbounds i16, ptr %106, i64 %108
  %110 = load i16, ptr %109, align 2, !tbaa !118
  %111 = zext i16 %110 to i32
  %112 = load ptr, ptr %2, align 8, !tbaa !3
  %113 = getelementptr inbounds nuw %struct.Rwr_Man_t_, ptr %112, i32 0, i32 5
  %114 = load ptr, ptr %113, align 8, !tbaa !117
  %115 = load i32, ptr %7, align 4, !tbaa !12
  %116 = sext i32 %115 to i64
  %117 = getelementptr inbounds i16, ptr %114, i64 %116
  %118 = load i16, ptr %117, align 2, !tbaa !118
  %119 = zext i16 %118 to i32
  %120 = shl i32 %119, 16
  %121 = or i32 %111, %120
  call void @Ivy_TruthDsdComputePrint(i32 noundef %121)
  store i32 0, ptr %8, align 4, !tbaa !12
  br label %122

122:                                              ; preds = %159, %80
  %123 = load i32, ptr %8, align 4, !tbaa !12
  %124 = load ptr, ptr %4, align 8, !tbaa !66
  %125 = call i32 @Vec_PtrSize(ptr noundef %124)
  %126 = icmp slt i32 %123, %125
  br i1 %126, label %127, label %131

127:                                              ; preds = %122
  %128 = load ptr, ptr %4, align 8, !tbaa !66
  %129 = load i32, ptr %8, align 4, !tbaa !12
  %130 = call ptr @Vec_PtrEntry(ptr noundef %128, i32 noundef %129)
  store ptr %130, ptr %5, align 8, !tbaa !88
  br label %131

131:                                              ; preds = %127, %122
  %132 = phi i1 [ false, %122 ], [ true, %127 ]
  br i1 %132, label %133, label %162

133:                                              ; preds = %131
  %134 = load ptr, ptr %5, align 8, !tbaa !88
  %135 = getelementptr inbounds nuw %struct.Rwr_Node_t_, ptr %134, i32 0, i32 2
  %136 = load i16, ptr %135, align 8, !tbaa !94
  %137 = sext i16 %136 to i32
  %138 = icmp eq i32 %137, 0
  br i1 %138, label %139, label %140

139:                                              ; preds = %133
  br label %159

140:                                              ; preds = %133
  %141 = load i32, ptr %8, align 4, !tbaa !12
  %142 = load ptr, ptr %5, align 8, !tbaa !88
  %143 = getelementptr inbounds nuw %struct.Rwr_Node_t_, ptr %142, i32 0, i32 2
  %144 = load i16, ptr %143, align 8, !tbaa !94
  %145 = sext i16 %144 to i32
  %146 = load ptr, ptr %5, align 8, !tbaa !88
  %147 = getelementptr inbounds nuw %struct.Rwr_Node_t_, ptr %146, i32 0, i32 4
  %148 = load i16, ptr %147, align 4, !tbaa !96
  %149 = sext i16 %148 to i32
  %150 = load ptr, ptr %5, align 8, !tbaa !88
  %151 = getelementptr inbounds nuw %struct.Rwr_Node_t_, ptr %150, i32 0, i32 3
  %152 = load i16, ptr %151, align 2, !tbaa !95
  %153 = sext i16 %152 to i32
  %154 = call i32 (ptr, ...) @printf(ptr noundef @.str.10, i32 noundef %141, i32 noundef %145, i32 noundef %149, i32 noundef %153)
  %155 = load ptr, ptr @stdout, align 8, !tbaa !119
  %156 = load ptr, ptr %5, align 8, !tbaa !88
  %157 = getelementptr inbounds nuw %struct.Rwr_Node_t_, ptr %156, i32 0, i32 9
  %158 = load ptr, ptr %157, align 8, !tbaa !90
  call void @Dec_GraphPrint(ptr noundef %155, ptr noundef %158, ptr noundef null, ptr noundef null)
  br label %159

159:                                              ; preds = %140, %139
  %160 = load i32, ptr %8, align 4, !tbaa !12
  %161 = add nsw i32 %160, 1
  store i32 %161, ptr %8, align 4, !tbaa !12
  br label %122, !llvm.loop !121

162:                                              ; preds = %131
  br label %163

163:                                              ; preds = %162
  %164 = load i32, ptr %6, align 4, !tbaa !12
  %165 = add nsw i32 %164, 1
  store i32 %165, ptr %6, align 4, !tbaa !12
  br label %61, !llvm.loop !122

166:                                              ; preds = %79, %61
  call void @llvm.lifetime.end.p0(i64 4, ptr %9) #7
  call void @llvm.lifetime.end.p0(i64 4, ptr %8) #7
  call void @llvm.lifetime.end.p0(i64 4, ptr %7) #7
  call void @llvm.lifetime.end.p0(i64 4, ptr %6) #7
  call void @llvm.lifetime.end.p0(i64 8, ptr %5) #7
  call void @llvm.lifetime.end.p0(i64 8, ptr %4) #7
  call void @llvm.lifetime.end.p0(i64 888, ptr %3) #7
  ret void
}