; Function Attrs: nounwind uwtable
define void @Rwr_ScoresReport(ptr noundef readonly captures(none) %0) local_unnamed_addr #0 {
  %2 = alloca [222 x i32], align 16
  %3 = alloca i32, align 4
  call void @llvm.lifetime.start.p0(i64 888, ptr nonnull %2) #13
  call void @llvm.lifetime.start.p0(i64 4, ptr nonnull %3) #13
  %4 = getelementptr inbounds nuw i8, ptr %0, i64 80
  %5 = load ptr, ptr %4, align 8, !tbaa !69
  %6 = getelementptr inbounds nuw i8, ptr %5, i64 4
  %7 = load i32, ptr %6, align 4, !tbaa !101
  %8 = icmp sgt i32 %7, 0
  br i1 %8, label %.lr.ph55, label %._crit_edge

.lr.ph55:                                         ; preds = %1
  %9 = getelementptr i8, ptr %5, i64 8
  %.val51 = load ptr, ptr %9, align 8, !tbaa !71
  %10 = zext nneg i32 %7 to i64
  br label %11

11:                                               ; preds = %.lr.ph55, %.critedge
  %indvars.iv66 = phi i64 [ 0, %.lr.ph55 ], [ %indvars.iv.next67, %.critedge ]
  %12 = getelementptr inbounds nuw [222 x i32], ptr %2, i64 0, i64 %indvars.iv66
  %13 = trunc nuw nsw i64 %indvars.iv66 to i32
  store i32 %13, ptr %12, align 4, !tbaa !25
  %14 = getelementptr inbounds nuw [222 x i32], ptr @Gains, i64 0, i64 %indvars.iv66
  store i32 0, ptr %14, align 4, !tbaa !25
  %15 = getelementptr inbounds nuw ptr, ptr %.val51, i64 %indvars.iv66
  %16 = load ptr, ptr %15, align 8, !tbaa !36
  %17 = getelementptr i8, ptr %16, i64 4
  %.val49 = load i32, ptr %17, align 4, !tbaa !32
  %18 = icmp sgt i32 %.val49, 0
  br i1 %18, label %.lr.ph, label %.critedge

.lr.ph:                                           ; preds = %11
  %19 = getelementptr i8, ptr %16, i64 8
  %.val46 = load ptr, ptr %19, align 8, !tbaa !35
  %wide.trip.count = zext nneg i32 %.val49 to i64
  br label %20

20:                                               ; preds = %.lr.ph, %20
  %indvars.iv = phi i64 [ 0, %.lr.ph ], [ %indvars.iv.next, %20 ]
  %21 = phi i32 [ 0, %.lr.ph ], [ %27, %20 ]
  %22 = getelementptr inbounds nuw ptr, ptr %.val46, i64 %indvars.iv
  %23 = load ptr, ptr %22, align 8, !tbaa !36
  %24 = getelementptr inbounds nuw i8, ptr %23, i64 10
  %25 = load i16, ptr %24, align 2, !tbaa !84
  %26 = sext i16 %25 to i32
  %27 = add nsw i32 %21, %26
  %indvars.iv.next = add nuw nsw i64 %indvars.iv, 1
  %exitcond.not = icmp eq i64 %indvars.iv.next, %wide.trip.count
  br i1 %exitcond.not, label %..critedge_crit_edge, label %20, !llvm.loop !104

..critedge_crit_edge:                             ; preds = %20
  store i32 %27, ptr %14, align 4, !tbaa !25
  br label %.critedge

.critedge:                                        ; preds = %..critedge_crit_edge, %11
  %indvars.iv.next67 = add nuw nsw i64 %indvars.iv66, 1
  %28 = icmp samesign ult i64 %indvars.iv.next67, %10
  br i1 %28, label %11, label %._crit_edge, !llvm.loop !105

._crit_edge:                                      ; preds = %.critedge, %1
  call void @qsort(ptr noundef nonnull %2, i64 noundef 222, i64 noundef 4, ptr noundef nonnull @Rwr_ScoresCompare) #13
  %29 = load ptr, ptr %4, align 8, !tbaa !69
  %30 = getelementptr inbounds nuw i8, ptr %29, i64 4
  %31 = load i32, ptr %30, align 4, !tbaa !101
  %32 = icmp sgt i32 %31, 0
  br i1 %32, label %.lr.ph62, label %._crit_edge63

.lr.ph62:                                         ; preds = %._crit_edge
  %33 = getelementptr inbounds nuw i8, ptr %0, i64 40
  br label %34

34:                                               ; preds = %.lr.ph62, %.critedge2
  %indvars.iv72 = phi i64 [ 0, %.lr.ph62 ], [ %indvars.iv.next73, %.critedge2 ]
  %35 = phi ptr [ %29, %.lr.ph62 ], [ %84, %.critedge2 ]
  %36 = getelementptr inbounds nuw [222 x i32], ptr %2, i64 0, i64 %indvars.iv72
  %37 = load i32, ptr %36, align 4, !tbaa !25
  %38 = sext i32 %37 to i64
  %39 = getelementptr inbounds [222 x i32], ptr @Gains, i64 0, i64 %38
  %40 = load i32, ptr %39, align 4, !tbaa !25
  %41 = icmp eq i32 %40, 0
  br i1 %41, label %._crit_edge63, label %42

42:                                               ; preds = %34
  %43 = getelementptr i8, ptr %35, i64 8
  %.val50 = load ptr, ptr %43, align 8, !tbaa !71
  %44 = getelementptr inbounds ptr, ptr %.val50, i64 %38
  %45 = load ptr, ptr %44, align 8, !tbaa !36
  %46 = getelementptr i8, ptr %45, i64 4
  %.val48 = load i32, ptr %46, align 4, !tbaa !32
  %47 = call i32 (ptr, ...) @printf(ptr noundef nonnull dereferenceable(1) @.str.8, i32 noundef %37, i32 noundef %.val48, i32 noundef %40)
  %48 = load ptr, ptr %33, align 8, !tbaa !106
  %49 = getelementptr inbounds i16, ptr %48, i64 %38
  %50 = load i16, ptr %49, align 2, !tbaa !107
  %51 = zext i16 %50 to i32
  store i32 %51, ptr %3, align 4, !tbaa !25
  %52 = load ptr, ptr @stdout, align 8, !tbaa !108
  call void @Extra_PrintBinary(ptr noundef %52, ptr noundef nonnull %3, i32 noundef 16) #13
  %53 = call i32 (ptr, ...) @printf(ptr noundef nonnull dereferenceable(1) @.str.9)
  %54 = load ptr, ptr %33, align 8, !tbaa !106
  %55 = getelementptr inbounds i16, ptr %54, i64 %38
  %56 = load i16, ptr %55, align 2, !tbaa !107
  %57 = zext i16 %56 to i32
  %58 = shl nuw i32 %57, 16
  %59 = or disjoint i32 %58, %57
  call void @Ivy_TruthDsdComputePrint(i32 noundef %59) #13
  %.val4756 = load i32, ptr %46, align 4, !tbaa !32
  %60 = icmp sgt i32 %.val4756, 0
  br i1 %60, label %.lr.ph59, label %.critedge2

.lr.ph59:                                         ; preds = %42
  %61 = getelementptr i8, ptr %45, i64 8
  br label %62

62:                                               ; preds = %.lr.ph59, %81
  %.val4775 = phi i32 [ %.val4756, %.lr.ph59 ], [ %.val47, %81 ]
  %indvars.iv69 = phi i64 [ 0, %.lr.ph59 ], [ %indvars.iv.next70, %81 ]
  %.val = load ptr, ptr %61, align 8, !tbaa !35
  %63 = getelementptr inbounds nuw ptr, ptr %.val, i64 %indvars.iv69
  %64 = load ptr, ptr %63, align 8, !tbaa !36
  %65 = getelementptr inbounds nuw i8, ptr %64, i64 8
  %66 = load i16, ptr %65, align 8, !tbaa !83
  %67 = icmp eq i16 %66, 0
  br i1 %67, label %81, label %68

68:                                               ; preds = %62
  %69 = sext i16 %66 to i32
  %70 = getelementptr inbounds nuw i8, ptr %64, i64 12
  %71 = load i16, ptr %70, align 4, !tbaa !85
  %72 = sext i16 %71 to i32
  %73 = getelementptr inbounds nuw i8, ptr %64, i64 10
  %74 = load i16, ptr %73, align 2, !tbaa !84
  %75 = sext i16 %74 to i32
  %76 = trunc nuw nsw i64 %indvars.iv69 to i32
  %77 = call i32 (ptr, ...) @printf(ptr noundef nonnull dereferenceable(1) @.str.10, i32 noundef %76, i32 noundef %69, i32 noundef %72, i32 noundef %75)
  %78 = load ptr, ptr @stdout, align 8, !tbaa !108
  %79 = getelementptr inbounds nuw i8, ptr %64, i64 40
  %80 = load ptr, ptr %79, align 8, !tbaa !74
  call void @Dec_GraphPrint(ptr noundef %78, ptr noundef %80, ptr noundef null, ptr noundef null) #13
  %.val47.pre = load i32, ptr %46, align 4, !tbaa !32
  br label %81

81:                                               ; preds = %62, %68
  %.val47 = phi i32 [ %.val4775, %62 ], [ %.val47.pre, %68 ]
  %indvars.iv.next70 = add nuw nsw i64 %indvars.iv69, 1
  %82 = sext i32 %.val47 to i64
  %83 = icmp slt i64 %indvars.iv.next70, %82
  br i1 %83, label %62, label %.critedge2, !llvm.loop !110

.critedge2:                                       ; preds = %81, %42
  %indvars.iv.next73 = add nuw nsw i64 %indvars.iv72, 1
  %84 = load ptr, ptr %4, align 8, !tbaa !69
  %85 = getelementptr inbounds nuw i8, ptr %84, i64 4
  %86 = load i32, ptr %85, align 4, !tbaa !101
  %87 = sext i32 %86 to i64
  %88 = icmp slt i64 %indvars.iv.next73, %87
  br i1 %88, label %34, label %._crit_edge63, !llvm.loop !111

._crit_edge63:                                    ; preds = %.critedge2, %34, %._crit_edge
  call void @llvm.lifetime.end.p0(i64 4, ptr nonnull %3) #13
  call void @llvm.lifetime.end.p0(i64 888, ptr nonnull %2) #13
  ret void
}